target datalayout = "e-m:e-p270:32:32-p271:32:32-p272:64:64-i64:64-i128:128-f80:128-n8:16:32:64-S128"
target triple = "x86_64-pc-linux-gnu"

%"class.icu_77::UCharCharacterIterator" = type { %"class.icu_77::CharacterIterator", ptr }
%"class.icu_77::CharacterIterator" = type { %"class.icu_77::ForwardCharacterIterator", i32, i32, i32, i32 }
%"class.icu_77::ForwardCharacterIterator" = type { %"class.icu_77::UObject" }
%"class.icu_77::UObject" = type { ptr }

; Function Attrs: mustprogress nounwind uwtable
define noundef zeroext i16 @_ZN6icu_7722UCharCharacterIterator11nextPostIncEv(ptr noundef nonnull align 8 dereferenceable(32) %0) unnamed_addr #0 align 2 {
  %2 = alloca i16, align 2
  %3 = alloca ptr, align 8
  store ptr %0, ptr %3, align 8, !tbaa !3
  %4 = load ptr, ptr %3, align 8
  %5 = getelementptr inbounds nuw %"class.icu_77::CharacterIterator", ptr %4, i32 0, i32 2
  %6 = load i32, ptr %5, align 4, !tbaa !23
  %7 = getelementptr inbounds nuw %"class.icu_77::CharacterIterator", ptr %4, i32 0, i32 4
  %8 = load i32, ptr %7, align 4, !tbaa !25
  %9 = icmp slt i32 %6, %8
  br i1 %9, label %10, label %19

10:                                               ; preds = %1
  %11 = getelementptr inbounds nuw %"class.icu_77::UCharCharacterIterator", ptr %4, i32 0, i32 1
  %12 = load ptr, ptr %11, align 8, !tbaa !10
  %13 = getelementptr inbounds nuw %"class.icu_77::CharacterIterator", ptr %4, i32 0, i32 2
  %14 = load i32, ptr %13, align 4, !tbaa !23
  %15 = add nsw i32 %14, 1
  store i32 %15, ptr %13, align 4, !tbaa !23
  %16 = sext i32 %14 to i64
  %17 = getelementptr inbounds i16, ptr %12, i64 %16
  %18 = load i16, ptr %17, align 2, !tbaa !28
  store i16 %18, ptr %2, align 2
  br label %20

19:                                               ; preds = %1
  store i16 -1, ptr %2, align 2
  br label %20

20:                                               ; preds = %19, %10
  %21 = load i16, ptr %2, align 2
  ret i16 %21
}