; Function Attrs: mustprogress nofree norecurse nosync nounwind willreturn memory(read, argmem: readwrite, inaccessiblemem: none) uwtable
define noundef zeroext i16 @_ZN6icu_7722UCharCharacterIterator11nextPostIncEv(ptr noundef nonnull align 8 captures(none) dereferenceable(32) %0) unnamed_addr #7 align 2 {
  %2 = getelementptr inbounds nuw i8, ptr %0, i64 12
  %3 = load i32, ptr %2, align 4, !tbaa !22
  %4 = getelementptr inbounds nuw i8, ptr %0, i64 20
  %5 = load i32, ptr %4, align 4, !tbaa !24
  %6 = icmp slt i32 %3, %5
  br i1 %6, label %7, label %14

7:                                                ; preds = %1
  %8 = getelementptr inbounds nuw i8, ptr %0, i64 24
  %9 = load ptr, ptr %8, align 8, !tbaa !6
  %10 = add nsw i32 %3, 1
  store i32 %10, ptr %2, align 4, !tbaa !22
  %11 = sext i32 %3 to i64
  %12 = getelementptr inbounds i16, ptr %9, i64 %11
  %13 = load i16, ptr %12, align 2, !tbaa !25
  br label %14

14:                                               ; preds = %1, %7
  %.0 = phi i16 [ %13, %7 ], [ -1, %1 ]
  ret i16 %.0
}